; Function Attrs: nounwind uwtable
define internal fastcc ptr @_init_l_Lean_Elab_Tactic_Try_tryTacticElabAttribute_unsafe__1___closed__8() unnamed_addr #0 {
  %1 = load ptr, ptr @l_Lean_Elab_Tactic_evalUnsafe____x40_Lean_Elab_Tactic_Try___hyg_6____closed__1, align 8, !tbaa !4
  %2 = load ptr, ptr @l_Lean_Elab_Tactic_Try_tryTacticElabAttribute_unsafe__1___closed__6, align 8, !tbaa !4
  %3 = load ptr, ptr @l_Lean_Elab_Tactic_Try_evalSuggestExact___lambda__4___closed__2, align 8, !tbaa !4
  %4 = load ptr, ptr @l_Lean_Elab_Tactic_evalUnsafe____x40_Lean_Elab_Tactic_Try___hyg_6____closed__2, align 8, !tbaa !4
  %5 = load ptr, ptr @l_Lean_Elab_Tactic_Try_tryTacticElabAttribute_unsafe__1___closed__7, align 8, !tbaa !4
  %6 = tail call ptr @l_Lean_Name_mkStr5(ptr noundef %1, ptr noundef %2, ptr noundef %3, ptr noundef %4, ptr noundef %5) #5
  ret ptr %6
}